target datalayout = "e-m:e-p270:32:32-p271:32:32-p272:64:64-i64:64-i128:128-f80:128-n8:16:32:64-S128"
target triple = "x86_64-unknown-linux-gnu"

%"class.folly::Promise" = type { i8, ptr }
%class.anon = type { ptr, ptr, %"class.folly::Promise" }

; Function Attrs: mustprogress nounwind uwtable
define linkonce_odr void @_ZN5folly7futures6detail8CoreBase12detachFutureEv(ptr noundef nonnull align 16 dereferenceable(136) %this) #5 comdat align 2 {
entry:
  %this.addr = alloca ptr, align 8
  store ptr %this, ptr %this.addr, align 8
  %this1 = load ptr, ptr %this.addr, align 8
  call void @_ZN5folly7futures6detail8CoreBase9detachOneEv(ptr noundef nonnull align 16 dereferenceable(136) %this1) #3
  ret void
}

; Function Attrs: mustprogress nounwind uwtable
define linkonce_odr noundef ptr @_ZSt10__exchangeIPN5folly7futures6detail4CoreIPN8proxygen15HTTPSessionBaseEEEDnET_RS9_OT0_(ptr noundef nonnull align 8 dereferenceable(8) %__obj, ptr noundef nonnull align 8 dereferenceable(8) %__new_val) #5 comdat {
entry:
  %__obj.addr = alloca ptr, align 8
  %__new_val.addr = alloca ptr, align 8
  %__old_val = alloca ptr, align 8
  store ptr %__obj, ptr %__obj.addr, align 8
  store ptr %__new_val, ptr %__new_val.addr, align 8
  %0 = load ptr, ptr %__obj.addr, align 8
  %1 = load ptr, ptr %0, align 8
  store ptr %1, ptr %__old_val, align 8
  %2 = load ptr, ptr %__obj.addr, align 8
  store ptr null, ptr %2, align 8
  %3 = load ptr, ptr %__old_val, align 8
  ret ptr %3
}

; Function Attrs: mustprogress nounwind uwtable
define linkonce_odr noundef zeroext i1 @_ZSt10__exchangeIbbET_RS0_OT0_(ptr noundef nonnull align 1 dereferenceable(1) %__obj, ptr noundef nonnull align 1 dereferenceable(1) %__new_val) #5 comdat {
entry:
  %__obj.addr = alloca ptr, align 8
  %__new_val.addr = alloca ptr, align 8
  %__old_val = alloca i8, align 1
  store ptr %__obj, ptr %__obj.addr, align 8
  store ptr %__new_val, ptr %__new_val.addr, align 8
  %0 = load ptr, ptr %__obj.addr, align 8
  %1 = load i8, ptr %0, align 1
  %tobool = trunc i8 %1 to i1
  %frombool = zext i1 %tobool to i8
  store i8 %frombool, ptr %__old_val, align 1
  %2 = load ptr, ptr %__new_val.addr, align 8
  %3 = load i8, ptr %2, align 1
  %tobool1 = trunc i8 %3 to i1
  %4 = load ptr, ptr %__obj.addr, align 8
  %frombool2 = zext i1 %tobool1 to i8
  store i8 %frombool2, ptr %4, align 1
  %5 = load i8, ptr %__old_val, align 1
  %tobool3 = trunc i8 %5 to i1
  ret i1 %tobool3
}

; Function Attrs: mustprogress uwtable
define linkonce_odr void @_ZN5folly7PromiseIPN8proxygen15HTTPSessionBaseEE6detachEv(ptr noundef nonnull align 8 dereferenceable(16) %this) #4 comdat align 2 {
entry:
  %this.addr = alloca ptr, align 8
  store ptr %this, ptr %this.addr, align 8
  %this1 = load ptr, ptr %this.addr, align 8
  %core_ = getelementptr inbounds %"class.folly::Promise", ptr %this1, i32 0, i32 1
  %0 = load ptr, ptr %core_, align 8
  %tobool = icmp ne ptr %0, null
  br i1 %tobool, label %if.then, label %if.end7

if.then:                                          ; preds = %entry
  %retrieved_ = getelementptr inbounds %"class.folly::Promise", ptr %this1, i32 0, i32 0
  %1 = load i8, ptr %retrieved_, align 8
  %tobool2 = trunc i8 %1 to i1
  br i1 %tobool2, label %if.end, label %if.then3

if.then3:                                         ; preds = %if.then
  %core_4 = getelementptr inbounds %"class.folly::Promise", ptr %this1, i32 0, i32 1
  %2 = load ptr, ptr %core_4, align 8
  call void @_ZN5folly7futures6detail8CoreBase12detachFutureEv(ptr noundef nonnull align 16 dereferenceable(136) %2) #3
  br label %if.end

if.end:                                           ; preds = %if.then3, %if.then
  %core_5 = getelementptr inbounds %"class.folly::Promise", ptr %this1, i32 0, i32 1
  %3 = load ptr, ptr %core_5, align 8
  call void @_ZN5folly7futures6detail32coreDetachPromiseMaybeWithResultIPN8proxygen15HTTPSessionBaseEEEvRNS1_4CoreIT_EE(ptr noundef nonnull align 16 dereferenceable(160) %3)
  %core_6 = getelementptr inbounds %"class.folly::Promise", ptr %this1, i32 0, i32 1
  store ptr null, ptr %core_6, align 8
  br label %if.end7

if.end7:                                          ; preds = %if.end, %entry
  ret void
}

; Function Attrs: mustprogress nounwind uwtable
define linkonce_odr noundef ptr @_ZSt8exchangeIPN5folly7futures6detail4CoreIPN8proxygen15HTTPSessionBaseEEEDnET_RS9_OT0_(ptr noundef nonnull align 8 dereferenceable(8) %__obj, ptr noundef nonnull align 8 dereferenceable(8) %__new_val) #5 comdat personality ptr @__gxx_personality_v0 {
entry:
  %__obj.addr = alloca ptr, align 8
  %__new_val.addr = alloca ptr, align 8
  store ptr %__obj, ptr %__obj.addr, align 8
  store ptr %__new_val, ptr %__new_val.addr, align 8
  %0 = load ptr, ptr %__obj.addr, align 8
  %1 = load ptr, ptr %__new_val.addr, align 8
  %call = invoke noundef ptr @_ZSt10__exchangeIPN5folly7futures6detail4CoreIPN8proxygen15HTTPSessionBaseEEEDnET_RS9_OT0_(ptr noundef nonnull align 8 dereferenceable(8) %0, ptr noundef nonnull align 8 dereferenceable(8) %1)
          to label %invoke.cont unwind label %terminate.lpad

invoke.cont:                                      ; preds = %entry
  ret ptr %call

terminate.lpad:                                   ; preds = %entry
  %2 = landingpad { ptr, i32 }
          catch ptr null
  %3 = extractvalue { ptr, i32 } %2, 0
  call void @__clang_call_terminate(ptr %3) #19
  unreachable
}

; Function Attrs: mustprogress nounwind uwtable
define linkonce_odr noundef zeroext i1 @_ZSt8exchangeIbbET_RS0_OT0_(ptr noundef nonnull align 1 dereferenceable(1) %__obj, ptr noundef nonnull align 1 dereferenceable(1) %__new_val) #5 comdat personality ptr @__gxx_personality_v0 {
entry:
  %__obj.addr = alloca ptr, align 8
  %__new_val.addr = alloca ptr, align 8
  store ptr %__obj, ptr %__obj.addr, align 8
  store ptr %__new_val, ptr %__new_val.addr, align 8
  %0 = load ptr, ptr %__obj.addr, align 8
  %1 = load ptr, ptr %__new_val.addr, align 8
  %call = invoke noundef zeroext i1 @_ZSt10__exchangeIbbET_RS0_OT0_(ptr noundef nonnull align 1 dereferenceable(1) %0, ptr noundef nonnull align 1 dereferenceable(1) %1)
          to label %invoke.cont unwind label %terminate.lpad

invoke.cont:                                      ; preds = %entry
  ret i1 %call

terminate.lpad:                                   ; preds = %entry
  %2 = landingpad { ptr, i32 }
          catch ptr null
  %3 = extractvalue { ptr, i32 } %2, 0
  call void @__clang_call_terminate(ptr %3) #19
  unreachable
}

; Function Attrs: mustprogress nounwind uwtable
define linkonce_odr void @_ZN5folly7PromiseIPN8proxygen15HTTPSessionBaseEED2Ev(ptr noundef nonnull align 8 dereferenceable(16) %this) unnamed_addr #5 comdat align 2 personality ptr @__gxx_personality_v0 {
entry:
  %this.addr = alloca ptr, align 8
  store ptr %this, ptr %this.addr, align 8
  %this1 = load ptr, ptr %this.addr, align 8
  invoke void @_ZN5folly7PromiseIPN8proxygen15HTTPSessionBaseEE6detachEv(ptr noundef nonnull align 8 dereferenceable(16) %this1)
          to label %invoke.cont unwind label %terminate.lpad

invoke.cont:                                      ; preds = %entry
  ret void

terminate.lpad:                                   ; preds = %entry
  %0 = landingpad { ptr, i32 }
          catch ptr null
  %1 = extractvalue { ptr, i32 } %0, 0
  call void @__clang_call_terminate(ptr %1) #19
  unreachable
}

; Function Attrs: mustprogress nounwind uwtable
define linkonce_odr void @_ZN5folly7PromiseIPN8proxygen15HTTPSessionBaseEEC2EOS4_(ptr noundef nonnull align 8 dereferenceable(16) %this, ptr noundef nonnull align 8 dereferenceable(16) %other) unnamed_addr #5 comdat align 2 {
entry:
  %this.addr = alloca ptr, align 8
  %other.addr = alloca ptr, align 8
  %ref.tmp = alloca i8, align 1
  %ref.tmp4 = alloca ptr, align 8
  store ptr %this, ptr %this.addr, align 8
  store ptr %other, ptr %other.addr, align 8
  %this1 = load ptr, ptr %this.addr, align 8
  %retrieved_ = getelementptr inbounds %"class.folly::Promise", ptr %this1, i32 0, i32 0
  %0 = load ptr, ptr %other.addr, align 8
  %retrieved_2 = getelementptr inbounds %"class.folly::Promise", ptr %0, i32 0, i32 0
  store i8 0, ptr %ref.tmp, align 1
  %call = call noundef zeroext i1 @_ZSt8exchangeIbbET_RS0_OT0_(ptr noundef nonnull align 1 dereferenceable(1) %retrieved_2, ptr noundef nonnull align 1 dereferenceable(1) %ref.tmp) #3
  %frombool = zext i1 %call to i8
  store i8 %frombool, ptr %retrieved_, align 8
  %core_ = getelementptr inbounds %"class.folly::Promise", ptr %this1, i32 0, i32 1
  %1 = load ptr, ptr %other.addr, align 8
  %core_3 = getelementptr inbounds %"class.folly::Promise", ptr %1, i32 0, i32 1
  store ptr null, ptr %ref.tmp4, align 8
  %call5 = call noundef ptr @_ZSt8exchangeIPN5folly7futures6detail4CoreIPN8proxygen15HTTPSessionBaseEEEDnET_RS9_OT0_(ptr noundef nonnull align 8 dereferenceable(8) %core_3, ptr noundef nonnull align 8 dereferenceable(8) %ref.tmp4) #3
  store ptr %call5, ptr %core_, align 8
  ret void
}

; Function Attrs: mustprogress nounwind uwtable
define internal void @"_ZZN8proxygen27ServerIdleSessionController14getIdleSessionEvEN3$_0D2Ev"(ptr noundef nonnull align 8 dereferenceable(32) %this) unnamed_addr #5 align 2 {
entry:
  %this.addr = alloca ptr, align 8
  store ptr %this, ptr %this.addr, align 8
  %this1 = load ptr, ptr %this.addr, align 8
  %0 = getelementptr inbounds %class.anon, ptr %this1, i32 0, i32 2
  call void @_ZN5folly7PromiseIPN8proxygen15HTTPSessionBaseEED2Ev(ptr noundef nonnull align 8 dereferenceable(16) %0) #3
  ret void
}

; Function Attrs: mustprogress nounwind uwtable
define internal void @"_ZZN8proxygen27ServerIdleSessionController14getIdleSessionEvEN3$_0C2EOS1_"(ptr noundef nonnull align 8 dereferenceable(32) %this, ptr noundef nonnull align 8 dereferenceable(32) %0) unnamed_addr #5 align 2 {
entry:
  %this.addr = alloca ptr, align 8
  %.addr = alloca ptr, align 8
  store ptr %this, ptr %this.addr, align 8
  store ptr %0, ptr %.addr, align 8
  %this1 = load ptr, ptr %this.addr, align 8
  %1 = getelementptr inbounds %class.anon, ptr %this1, i32 0, i32 0
  %2 = load ptr, ptr %.addr, align 8
  %3 = getelementptr inbounds %class.anon, ptr %2, i32 0, i32 0
  call void @llvm.memcpy.p0.p0.i64(ptr align 8 %1, ptr align 8 %3, i64 16, i1 false)
  %4 = getelementptr inbounds %class.anon, ptr %this1, i32 0, i32 2
  %5 = load ptr, ptr %.addr, align 8
  %6 = getelementptr inbounds %class.anon, ptr %5, i32 0, i32 2
  call void @_ZN5folly7PromiseIPN8proxygen15HTTPSessionBaseEEC2EOS4_(ptr noundef nonnull align 8 dereferenceable(16) %4, ptr noundef nonnull align 8 dereferenceable(16) %6) #3
  ret void
}

; Function Attrs: mustprogress nounwind uwtable
define internal noundef i64 @"_ZN5folly6detail8function13DispatchSmall4execIZN8proxygen27ServerIdleSessionController14getIdleSessionEvE3$_0EEmNS1_2OpEPNS1_4DataES9_"(i32 noundef %o, ptr noundef %src, ptr noundef %dst) #5 align 2 {
entry:
  %o.addr = alloca i32, align 4
  %src.addr = alloca ptr, align 8
  %dst.addr = alloca ptr, align 8
  store i32 %o, ptr %o.addr, align 4
  store ptr %src, ptr %src.addr, align 8
  store ptr %dst, ptr %dst.addr, align 8
  %0 = load i32, ptr %o.addr, align 4
  switch i32 %0, label %sw.epilog [
    i32 0, label %sw.bb
    i32 1, label %sw.bb1
    i32 2, label %sw.bb2
  ]

sw.bb:                                            ; preds = %entry
  %1 = load ptr, ptr %dst.addr, align 8
  %2 = load ptr, ptr %src.addr, align 8
  call void @"_ZZN8proxygen27ServerIdleSessionController14getIdleSessionEvEN3$_0C2EOS1_"(ptr noundef nonnull align 8 dereferenceable(32) %1, ptr noundef nonnull align 8 dereferenceable(32) %2) #3
  br label %sw.bb1

sw.bb1:                                           ; preds = %sw.bb, %entry
  %3 = load ptr, ptr %src.addr, align 8
  call void @"_ZZN8proxygen27ServerIdleSessionController14getIdleSessionEvEN3$_0D2Ev"(ptr noundef nonnull align 8 dereferenceable(32) %3) #3
  br label %sw.epilog

sw.bb2:                                           ; preds = %entry
  br label %sw.epilog

sw.epilog:                                        ; preds = %sw.bb2, %sw.bb1, %entry
  ret i64 0
}