; Function Attrs: mustprogress nounwind uwtable
define internal noundef i64 @"_ZN5folly6detail8function13DispatchSmall4execIZN8proxygen27ServerIdleSessionController14getIdleSessionEvE3$_0EEmNS1_2OpEPNS1_4DataES9_"(i32 noundef %o, ptr nocapture noundef %src, ptr nocapture noundef writeonly %dst) #4 align 2 personality ptr @__gxx_personality_v0 {
entry:
  switch i32 %o, label %sw.epilog [
    i32 0, label %sw.bb
    i32 1, label %sw.bb1
  ]

sw.bb:                                            ; preds = %entry
  tail call void @llvm.memcpy.p0.p0.i64(ptr noundef nonnull align 8 dereferenceable(16) %dst, ptr noundef nonnull align 8 dereferenceable(16) %src, i64 16, i1 false)
  %0 = getelementptr inbounds i8, ptr %dst, i64 16
  %1 = getelementptr inbounds i8, ptr %src, i64 16
  %2 = load i8, ptr %1, align 1
  %3 = and i8 %2, 1
  store i8 0, ptr %1, align 1
  store i8 %3, ptr %0, align 8
  %core_.i.i = getelementptr inbounds i8, ptr %dst, i64 24
  %core_3.i.i = getelementptr inbounds i8, ptr %src, i64 24
  %4 = load ptr, ptr %core_3.i.i, align 8
  store ptr null, ptr %core_3.i.i, align 8
  store ptr %4, ptr %core_.i.i, align 8
  br label %sw.bb1

sw.bb1:                                           ; preds = %sw.bb, %entry
  %core_.i.i.i = getelementptr inbounds i8, ptr %src, i64 24
  %5 = load ptr, ptr %core_.i.i.i, align 8
  %tobool.not.i.i.i = icmp eq ptr %5, null
  br i1 %tobool.not.i.i.i, label %sw.epilog, label %if.then.i.i.i

if.then.i.i.i:                                    ; preds = %sw.bb1
  %6 = getelementptr inbounds i8, ptr %src, i64 16
  %7 = load i8, ptr %6, align 8
  %8 = and i8 %7, 1
  %tobool2.not.i.i.i = icmp eq i8 %8, 0
  br i1 %tobool2.not.i.i.i, label %if.then3.i.i.i, label %if.end.i.i.i

if.then3.i.i.i:                                   ; preds = %if.then.i.i.i
  tail call void @_ZN5folly7futures6detail8CoreBase9detachOneEv(ptr noundef nonnull align 16 dereferenceable(136) %5) #19
  %.pre.i.i.i = load ptr, ptr %core_.i.i.i, align 8
  br label %if.end.i.i.i

if.end.i.i.i:                                     ; preds = %if.then3.i.i.i, %if.then.i.i.i
  %9 = phi ptr [ %.pre.i.i.i, %if.then3.i.i.i ], [ %5, %if.then.i.i.i ]
  invoke void @_ZN5folly7futures6detail32coreDetachPromiseMaybeWithResultIPN8proxygen15HTTPSessionBaseEEEvRNS1_4CoreIT_EE(ptr noundef nonnull align 16 dereferenceable(160) %9)
          to label %.noexc.i.i unwind label %terminate.lpad.i.i

.noexc.i.i:                                       ; preds = %if.end.i.i.i
  store ptr null, ptr %core_.i.i.i, align 8
  br label %sw.epilog

terminate.lpad.i.i:                               ; preds = %if.end.i.i.i
  %10 = landingpad { ptr, i32 }
          catch ptr null
  %11 = extractvalue { ptr, i32 } %10, 0
  tail call void @__clang_call_terminate(ptr %11) #23
  unreachable

sw.epilog:                                        ; preds = %.noexc.i.i, %sw.bb1, %entry
  ret i64 0
}